target datalayout = "e-m:e-p270:32:32-p271:32:32-p272:64:64-i64:64-i128:128-f80:128-n8:16:32:64-S128"
target triple = "x86_64-pc-linux-gnu"

%struct.mbedtls_ssl_context = type { ptr, i32, i32, i32, i32, i32, ptr, ptr, ptr, ptr, ptr, ptr, ptr, ptr, ptr, ptr, ptr, ptr, ptr, ptr, ptr, ptr, ptr, ptr, ptr, ptr, ptr, ptr, ptr, ptr, ptr, ptr, ptr, i32, i64, i64, i16, i64, i64, i64, i64, i32, i32, i8, i8, i32, i8, ptr, ptr, ptr, ptr, ptr, ptr, ptr, i32, i64, i64, [8 x i8], i16, ptr, ptr, ptr, i64, i32, i64, [12 x i8], [12 x i8], [32 x i8], i8, i8, ptr, ptr, %union.mbedtls_ssl_user_data_t }
%union.mbedtls_ssl_user_data_t = type { i64 }
%struct.mbedtls_ssl_handshake_params = type { i8, i8, i8, i8, i8, i32, i8, i8, i8, i8, ptr, ptr, ptr, ptr, ptr, i8, i8, i8, i8, i16, i16, [20 x i16], ptr, ptr, %struct.mbedtls_dhm_context, %struct.mbedtls_ecdh_context, i16, i64, i32, i8, [1024 x i8], i64, ptr, ptr, i64, i16, ptr, ptr, ptr, ptr, %struct.anon, ptr, i16, i8, i32, i32, i32, ptr, ptr, ptr, i32, ptr, [8 x i8], i8, [32 x i8], i8, i16, %struct.mbedtls_md_context_t, %struct.mbedtls_md_context_t, i16, i8, %union.anon.1, [64 x i8], [1076 x i8], i64, i32, i32, i8, ptr, ptr, %union.anon.4, %struct.mbedtls_ssl_tls13_handshake_secrets, ptr, i64, ptr }
%struct.mbedtls_dhm_context = type { %struct.mbedtls_mpi, %struct.mbedtls_mpi, %struct.mbedtls_mpi, %struct.mbedtls_mpi, %struct.mbedtls_mpi, %struct.mbedtls_mpi, %struct.mbedtls_mpi, %struct.mbedtls_mpi, %struct.mbedtls_mpi, %struct.mbedtls_mpi }
%struct.mbedtls_mpi = type { ptr, i16, i16 }
%struct.mbedtls_ecdh_context = type { i8, i32, i32, %union.anon }
%union.anon = type { %struct.mbedtls_ecdh_context_mbed }
%struct.mbedtls_ecdh_context_mbed = type { %struct.mbedtls_ecp_group, %struct.mbedtls_mpi, %struct.mbedtls_ecp_point, %struct.mbedtls_ecp_point, %struct.mbedtls_mpi }
%struct.mbedtls_ecp_group = type { i32, %struct.mbedtls_mpi, %struct.mbedtls_mpi, %struct.mbedtls_mpi, %struct.mbedtls_ecp_point, %struct.mbedtls_mpi, i64, i64, i32, ptr, ptr, ptr, ptr, ptr, i64 }
%struct.mbedtls_ecp_point = type { %struct.mbedtls_mpi, %struct.mbedtls_mpi, %struct.mbedtls_mpi }
%struct.anon = type { i64, i8, [4 x %struct.mbedtls_ssl_hs_buffer], %struct.anon.0 }
%struct.mbedtls_ssl_hs_buffer = type { i8, ptr, i64 }
%struct.anon.0 = type { ptr, i64, i32 }
%struct.mbedtls_md_context_t = type { ptr, ptr, ptr }
%union.anon.1 = type { %struct.anon.2 }
%struct.anon.2 = type { i8, [64 x i8], i64 }
%union.anon.4 = type { [64 x i8] }
%struct.mbedtls_ssl_tls13_handshake_secrets = type { [64 x i8], [64 x i8] }

@.str = private unnamed_addr constant [130 x i8] c"generated/home/dtcxzyw/WorkSpace/Projects/compilers/llvm-opt-benchmark/bench/lief/bench_build/mbed_src/library/ssl_tls13_server.c\00", align 1
@.str.11 = private unnamed_addr constant [25 x i8] c"missing input data in %s\00", align 1
@.str.31 = private unnamed_addr constant [39 x i8] c"ssl_tls13_parse_key_exchange_modes_ext\00", align 1
@.str.55 = private unnamed_addr constant [19 x i8] c"Found PSK KEX MODE\00", align 1
@.str.56 = private unnamed_addr constant [29 x i8] c"Found PSK_EPHEMERAL KEX MODE\00", align 1

; Function Attrs: inlinehint nounwind uwtable
define internal i32 @mbedtls_ssl_chk_buf_ptr(ptr noundef %0, ptr noundef %1, i64 noundef %2) #3 {
  %4 = alloca ptr, align 8
  %5 = alloca ptr, align 8
  %6 = alloca i64, align 8
  store ptr %0, ptr %4, align 8, !tbaa !41
  store ptr %1, ptr %5, align 8, !tbaa !41
  store i64 %2, ptr %6, align 8, !tbaa !42
  %7 = load ptr, ptr %4, align 8, !tbaa !41
  %8 = load ptr, ptr %5, align 8, !tbaa !41
  %9 = icmp ugt ptr %7, %8
  br i1 %9, label %18, label %10

10:                                               ; preds = %3
  %11 = load i64, ptr %6, align 8, !tbaa !42
  %12 = load ptr, ptr %5, align 8, !tbaa !41
  %13 = load ptr, ptr %4, align 8, !tbaa !41
  %14 = ptrtoint ptr %12 to i64
  %15 = ptrtoint ptr %13 to i64
  %16 = sub i64 %14, %15
  %17 = icmp ugt i64 %11, %16
  br label %18

18:                                               ; preds = %10, %3
  %19 = phi i1 [ true, %3 ], [ %17, %10 ]
  %20 = zext i1 %19 to i32
  ret i32 %20
}

; Function Attrs: nounwind uwtable
define internal i32 @ssl_tls13_parse_key_exchange_modes_ext(ptr noundef %0, ptr noundef %1, ptr noundef %2) #0 {
  %4 = alloca i32, align 4
  %5 = alloca ptr, align 8
  %6 = alloca ptr, align 8
  %7 = alloca ptr, align 8
  %8 = alloca ptr, align 8
  %9 = alloca i64, align 8
  %10 = alloca i32, align 4
  %11 = alloca i32, align 4
  store ptr %0, ptr %5, align 8, !tbaa !3
  store ptr %1, ptr %6, align 8, !tbaa !41
  store ptr %2, ptr %7, align 8, !tbaa !41
  call void @llvm.lifetime.start.p0(i64 8, ptr %8) #10
  %12 = load ptr, ptr %6, align 8, !tbaa !41
  store ptr %12, ptr %8, align 8, !tbaa !41
  call void @llvm.lifetime.start.p0(i64 8, ptr %9) #10
  call void @llvm.lifetime.start.p0(i64 4, ptr %10) #10
  store i32 0, ptr %10, align 4, !tbaa !8
  br label %13

13:                                               ; preds = %3
  %14 = load ptr, ptr %8, align 8, !tbaa !41
  %15 = load ptr, ptr %7, align 8, !tbaa !41
  %16 = call i32 @mbedtls_ssl_chk_buf_ptr(ptr noundef %14, ptr noundef %15, i64 noundef 1)
  %17 = icmp ne i32 %16, 0
  br i1 %17, label %18, label %21

18:                                               ; preds = %13
  %19 = load ptr, ptr %5, align 8, !tbaa !3
  call void (ptr, i32, ptr, i32, ptr, ...) @mbedtls_debug_print_msg(ptr noundef %19, i32 noundef 1, ptr noundef @.str, i32 noundef 118, ptr noundef @.str.11, ptr noundef @.str.31)
  %20 = load ptr, ptr %5, align 8, !tbaa !3
  call void @mbedtls_ssl_pend_fatal_alert(ptr noundef %20, i8 noundef zeroext 50, i32 noundef -29440)
  store i32 -29440, ptr %4, align 4
  store i32 1, ptr %11, align 4
  br label %72

21:                                               ; preds = %13
  br label %22

22:                                               ; preds = %21
  br label %23

23:                                               ; preds = %22
  %24 = load ptr, ptr %8, align 8, !tbaa !41
  %25 = getelementptr inbounds nuw i8, ptr %24, i32 1
  store ptr %25, ptr %8, align 8, !tbaa !41
  %26 = load i8, ptr %24, align 1, !tbaa !56
  %27 = zext i8 %26 to i64
  store i64 %27, ptr %9, align 8, !tbaa !42
  %28 = load i64, ptr %9, align 8, !tbaa !42
  %29 = icmp ugt i64 %28, 2
  br i1 %29, label %30, label %32

30:                                               ; preds = %23
  %31 = load ptr, ptr %5, align 8, !tbaa !3
  call void @mbedtls_ssl_pend_fatal_alert(ptr noundef %31, i8 noundef zeroext 47, i32 noundef -26112)
  store i32 -28160, ptr %4, align 4
  store i32 1, ptr %11, align 4
  br label %72

32:                                               ; preds = %23
  br label %33

33:                                               ; preds = %32
  %34 = load ptr, ptr %8, align 8, !tbaa !41
  %35 = load ptr, ptr %7, align 8, !tbaa !41
  %36 = load i64, ptr %9, align 8, !tbaa !42
  %37 = call i32 @mbedtls_ssl_chk_buf_ptr(ptr noundef %34, ptr noundef %35, i64 noundef %36)
  %38 = icmp ne i32 %37, 0
  br i1 %38, label %39, label %42

39:                                               ; preds = %33
  %40 = load ptr, ptr %5, align 8, !tbaa !3
  call void (ptr, i32, ptr, i32, ptr, ...) @mbedtls_debug_print_msg(ptr noundef %40, i32 noundef 1, ptr noundef @.str, i32 noundef 128, ptr noundef @.str.11, ptr noundef @.str.31)
  %41 = load ptr, ptr %5, align 8, !tbaa !3
  call void @mbedtls_ssl_pend_fatal_alert(ptr noundef %41, i8 noundef zeroext 50, i32 noundef -29440)
  store i32 -29440, ptr %4, align 4
  store i32 1, ptr %11, align 4
  br label %72

42:                                               ; preds = %33
  br label %43

43:                                               ; preds = %42
  br label %44

44:                                               ; preds = %43
  br label %45

45:                                               ; preds = %64, %44
  %46 = load i64, ptr %9, align 8, !tbaa !42
  %47 = add i64 %46, -1
  store i64 %47, ptr %9, align 8, !tbaa !42
  %48 = icmp ne i64 %46, 0
  br i1 %48, label %49, label %65

49:                                               ; preds = %45
  %50 = load ptr, ptr %8, align 8, !tbaa !41
  %51 = getelementptr inbounds nuw i8, ptr %50, i32 1
  store ptr %51, ptr %8, align 8, !tbaa !41
  %52 = load i8, ptr %50, align 1, !tbaa !56
  %53 = zext i8 %52 to i32
  switch i32 %53, label %62 [
    i32 0, label %54
    i32 1, label %58
  ]

54:                                               ; preds = %49
  %55 = load i32, ptr %10, align 4, !tbaa !8
  %56 = or i32 %55, 1
  store i32 %56, ptr %10, align 4, !tbaa !8
  %57 = load ptr, ptr %5, align 8, !tbaa !3
  call void (ptr, i32, ptr, i32, ptr, ...) @mbedtls_debug_print_msg(ptr noundef %57, i32 noundef 3, ptr noundef @.str, i32 noundef 134, ptr noundef @.str.55)
  br label %64

58:                                               ; preds = %49
  %59 = load i32, ptr %10, align 4, !tbaa !8
  %60 = or i32 %59, 4
  store i32 %60, ptr %10, align 4, !tbaa !8
  %61 = load ptr, ptr %5, align 8, !tbaa !3
  call void (ptr, i32, ptr, i32, ptr, ...) @mbedtls_debug_print_msg(ptr noundef %61, i32 noundef 3, ptr noundef @.str, i32 noundef 138, ptr noundef @.str.56)
  br label %64

62:                                               ; preds = %49
  %63 = load ptr, ptr %5, align 8, !tbaa !3
  call void @mbedtls_ssl_pend_fatal_alert(ptr noundef %63, i8 noundef zeroext 47, i32 noundef -26112)
  store i32 -26112, ptr %4, align 4
  store i32 1, ptr %11, align 4
  br label %72

64:                                               ; preds = %58, %54
  br label %45, !llvm.loop !93

65:                                               ; preds = %45
  %66 = load i32, ptr %10, align 4, !tbaa !8
  %67 = trunc i32 %66 to i8
  %68 = load ptr, ptr %5, align 8, !tbaa !3
  %69 = getelementptr inbounds nuw %struct.mbedtls_ssl_context, ptr %68, i32 0, i32 16
  %70 = load ptr, ptr %69, align 8, !tbaa !19
  %71 = getelementptr inbounds nuw %struct.mbedtls_ssl_handshake_params, ptr %70, i32 0, i32 18
  store i8 %67, ptr %71, align 1, !tbaa !94
  store i32 0, ptr %4, align 4
  store i32 1, ptr %11, align 4
  br label %72

72:                                               ; preds = %65, %62, %39, %30, %18
  call void @llvm.lifetime.end.p0(i64 4, ptr %10) #10
  call void @llvm.lifetime.end.p0(i64 8, ptr %9) #10
  call void @llvm.lifetime.end.p0(i64 8, ptr %8) #10
  %73 = load i32, ptr %4, align 4
  ret i32 %73
}