; Function Attrs: nounwind uwtable
define internal fastcc range(i32 -29440, 1) i32 @ssl_tls13_parse_key_exchange_modes_ext(ptr noundef %0, ptr noundef %1, ptr noundef %2) unnamed_addr #0 {
  %4 = ptrtoint ptr %2 to i64
  %narrow.i.not = icmp ugt ptr %2, %1
  br i1 %narrow.i.not, label %6, label %5

5:                                                ; preds = %3
  tail call void (ptr, i32, ptr, i32, ptr, ...) @mbedtls_debug_print_msg(ptr noundef %0, i32 noundef 1, ptr noundef nonnull @.str, i32 noundef 118, ptr noundef nonnull @.str.11, ptr noundef nonnull @.str.31) #9
  tail call void @mbedtls_ssl_pend_fatal_alert(ptr noundef %0, i8 noundef zeroext 50, i32 noundef -29440) #9
  br label %28

6:                                                ; preds = %3
  %7 = load i8, ptr %1, align 1, !tbaa !47
  %8 = icmp ugt i8 %7, 2
  br i1 %8, label %9, label %10

9:                                                ; preds = %6
  tail call void @mbedtls_ssl_pend_fatal_alert(ptr noundef %0, i8 noundef zeroext 47, i32 noundef -26112) #9
  br label %28

10:                                               ; preds = %6
  %11 = zext nneg i8 %7 to i64
  %12 = getelementptr inbounds nuw i8, ptr %1, i64 1
  %13 = ptrtoint ptr %12 to i64
  %14 = sub i64 %4, %13
  %.not = icmp ult i64 %14, %11
  br i1 %.not, label %15, label %.preheader

.preheader:                                       ; preds = %10
  %.not2731 = icmp eq i8 %7, 0
  br i1 %.not2731, label %._crit_edge, label %.lr.ph

15:                                               ; preds = %10
  tail call void (ptr, i32, ptr, i32, ptr, ...) @mbedtls_debug_print_msg(ptr noundef %0, i32 noundef 1, ptr noundef nonnull @.str, i32 noundef 128, ptr noundef nonnull @.str.11, ptr noundef nonnull @.str.31) #9
  tail call void @mbedtls_ssl_pend_fatal_alert(ptr noundef %0, i8 noundef zeroext 50, i32 noundef -29440) #9
  br label %28

.lr.ph:                                           ; preds = %.preheader, %24
  %.in = phi i64 [ %16, %24 ], [ %11, %.preheader ]
  %.033 = phi i8 [ %.1, %24 ], [ 0, %.preheader ]
  %.02332 = phi ptr [ %17, %24 ], [ %12, %.preheader ]
  %16 = add nsw i64 %.in, -1
  %17 = getelementptr inbounds nuw i8, ptr %.02332, i64 1
  %18 = load i8, ptr %.02332, align 1, !tbaa !47
  switch i8 %18, label %23 [
    i8 0, label %19
    i8 1, label %21
  ]

19:                                               ; preds = %.lr.ph
  %20 = or i8 %.033, 1
  tail call void (ptr, i32, ptr, i32, ptr, ...) @mbedtls_debug_print_msg(ptr noundef %0, i32 noundef 3, ptr noundef nonnull @.str, i32 noundef 134, ptr noundef nonnull @.str.55) #9
  br label %24

21:                                               ; preds = %.lr.ph
  %22 = or i8 %.033, 4
  tail call void (ptr, i32, ptr, i32, ptr, ...) @mbedtls_debug_print_msg(ptr noundef %0, i32 noundef 3, ptr noundef nonnull @.str, i32 noundef 138, ptr noundef nonnull @.str.56) #9
  br label %24

23:                                               ; preds = %.lr.ph
  tail call void @mbedtls_ssl_pend_fatal_alert(ptr noundef %0, i8 noundef zeroext 47, i32 noundef -26112) #9
  br label %28

24:                                               ; preds = %21, %19
  %.1 = phi i8 [ %22, %21 ], [ %20, %19 ]
  %.not27 = icmp eq i64 %16, 0
  br i1 %.not27, label %._crit_edge, label %.lr.ph, !llvm.loop !119

._crit_edge:                                      ; preds = %24, %.preheader
  %.0.lcssa = phi i8 [ 0, %.preheader ], [ %.1, %24 ]
  %25 = getelementptr inbounds nuw i8, ptr %0, i64 112
  %26 = load ptr, ptr %25, align 8, !tbaa !16
  %27 = getelementptr inbounds nuw i8, ptr %26, i64 59
  store i8 %.0.lcssa, ptr %27, align 1, !tbaa !96
  br label %28

28:                                               ; preds = %._crit_edge, %23, %15, %9, %5
  %.024 = phi i32 [ -29440, %5 ], [ -28160, %9 ], [ -29440, %15 ], [ -26112, %23 ], [ 0, %._crit_edge ]
  ret i32 %.024
}